target datalayout = "e-m:e-p270:32:32-p271:32:32-p272:64:64-i64:64-i128:128-f80:128-n8:16:32:64-S128"
target triple = "x86_64-pc-linux-gnu"

@__const.do_evp_cipher.key = private unnamed_addr constant [16 x i8] c"\00\01\02\03\04\05\06\07\08\09\0A\0B\0C\0D\0E\0F", align 16
@__const.do_evp_cipher.iv = private unnamed_addr constant [8 x i8] c"\01\02\03\04\05\06\07\08", align 1
@__const.do_evp_cipher.intext = private unnamed_addr constant [5 x i8] c"text\00", align 1

; Function Attrs: nounwind uwtable
define internal i32 @do_evp_cipher(ptr noundef %0, ptr noundef %1) #0 {
  %3 = alloca i32, align 4
  %4 = alloca ptr, align 8
  %5 = alloca ptr, align 8
  %6 = alloca [1024 x i8], align 16
  %7 = alloca i32, align 4
  %8 = alloca i32, align 4
  %9 = alloca [16 x i8], align 16
  %10 = alloca [8 x i8], align 1
  %11 = alloca [5 x i8], align 1
  %12 = alloca ptr, align 8
  %13 = alloca i32, align 4
  store ptr %0, ptr %4, align 8, !tbaa !45
  store ptr %1, ptr %5, align 8, !tbaa !43
  call void @llvm.lifetime.start.p0(i64 1024, ptr %6) #6
  call void @llvm.lifetime.start.p0(i64 4, ptr %7) #6
  call void @llvm.lifetime.start.p0(i64 4, ptr %8) #6
  call void @llvm.lifetime.start.p0(i64 16, ptr %9) #6
  call void @llvm.memcpy.p0.p0.i64(ptr align 16 %9, ptr align 16 @__const.do_evp_cipher.key, i64 16, i1 false)
  call void @llvm.lifetime.start.p0(i64 8, ptr %10) #6
  call void @llvm.memcpy.p0.p0.i64(ptr align 1 %10, ptr align 1 @__const.do_evp_cipher.iv, i64 8, i1 false)
  call void @llvm.lifetime.start.p0(i64 5, ptr %11) #6
  call void @llvm.memcpy.p0.p0.i64(ptr align 1 %11, ptr align 1 @__const.do_evp_cipher.intext, i64 5, i1 false)
  call void @llvm.lifetime.start.p0(i64 8, ptr %12) #6
  %14 = call ptr @EVP_CIPHER_CTX_new()
  store ptr %14, ptr %12, align 8, !tbaa !83
  %15 = load ptr, ptr %12, align 8, !tbaa !83
  %16 = load ptr, ptr %5, align 8, !tbaa !43
  %17 = call i32 @EVP_CIPHER_CTX_set_params(ptr noundef %15, ptr noundef %16)
  %18 = icmp ne i32 %17, 0
  br i1 %18, label %21, label %19

19:                                               ; preds = %2
  %20 = load ptr, ptr %12, align 8, !tbaa !83
  call void @EVP_CIPHER_CTX_free(ptr noundef %20)
  store i32 0, ptr %3, align 4
  store i32 1, ptr %13, align 4
  br label %53

21:                                               ; preds = %2
  %22 = load ptr, ptr %12, align 8, !tbaa !83
  %23 = load ptr, ptr %4, align 8, !tbaa !45
  %24 = getelementptr inbounds [16 x i8], ptr %9, i64 0, i64 0
  %25 = getelementptr inbounds [8 x i8], ptr %10, i64 0, i64 0
  %26 = call i32 @EVP_EncryptInit_ex2(ptr noundef %22, ptr noundef %23, ptr noundef %24, ptr noundef %25, ptr noundef null)
  %27 = icmp ne i32 %26, 0
  br i1 %27, label %30, label %28

28:                                               ; preds = %21
  %29 = load ptr, ptr %12, align 8, !tbaa !83
  call void @EVP_CIPHER_CTX_free(ptr noundef %29)
  store i32 0, ptr %3, align 4
  store i32 1, ptr %13, align 4
  br label %53

30:                                               ; preds = %21
  %31 = load ptr, ptr %12, align 8, !tbaa !83
  %32 = getelementptr inbounds [1024 x i8], ptr %6, i64 0, i64 0
  %33 = getelementptr inbounds [5 x i8], ptr %11, i64 0, i64 0
  %34 = call i32 @EVP_EncryptUpdate(ptr noundef %31, ptr noundef %32, ptr noundef %7, ptr noundef %33, i32 noundef 4)
  %35 = icmp ne i32 %34, 0
  br i1 %35, label %38, label %36

36:                                               ; preds = %30
  %37 = load ptr, ptr %12, align 8, !tbaa !83
  call void @EVP_CIPHER_CTX_free(ptr noundef %37)
  store i32 0, ptr %3, align 4
  store i32 1, ptr %13, align 4
  br label %53

38:                                               ; preds = %30
  %39 = load ptr, ptr %12, align 8, !tbaa !83
  %40 = getelementptr inbounds [1024 x i8], ptr %6, i64 0, i64 0
  %41 = load i32, ptr %7, align 4, !tbaa !37
  %42 = sext i32 %41 to i64
  %43 = getelementptr inbounds i8, ptr %40, i64 %42
  %44 = call i32 @EVP_EncryptFinal_ex(ptr noundef %39, ptr noundef %43, ptr noundef %8)
  %45 = icmp ne i32 %44, 0
  br i1 %45, label %48, label %46

46:                                               ; preds = %38
  %47 = load ptr, ptr %12, align 8, !tbaa !83
  call void @EVP_CIPHER_CTX_free(ptr noundef %47)
  store i32 0, ptr %3, align 4
  store i32 1, ptr %13, align 4
  br label %53

48:                                               ; preds = %38
  %49 = load i32, ptr %8, align 4, !tbaa !37
  %50 = load i32, ptr %7, align 4, !tbaa !37
  %51 = add nsw i32 %50, %49
  store i32 %51, ptr %7, align 4, !tbaa !37
  %52 = load ptr, ptr %12, align 8, !tbaa !83
  call void @EVP_CIPHER_CTX_free(ptr noundef %52)
  store i32 1, ptr %3, align 4
  store i32 1, ptr %13, align 4
  br label %53

53:                                               ; preds = %48, %46, %36, %28, %19
  call void @llvm.lifetime.end.p0(i64 8, ptr %12) #6
  call void @llvm.lifetime.end.p0(i64 5, ptr %11) #6
  call void @llvm.lifetime.end.p0(i64 8, ptr %10) #6
  call void @llvm.lifetime.end.p0(i64 16, ptr %9) #6
  call void @llvm.lifetime.end.p0(i64 4, ptr %8) #6
  call void @llvm.lifetime.end.p0(i64 4, ptr %7) #6
  call void @llvm.lifetime.end.p0(i64 1024, ptr %6) #6
  %54 = load i32, ptr %3, align 4
  ret i32 %54
}