; Function Attrs: nounwind uwtable
define internal fastcc void @do_evp_cipher(ptr noundef nonnull %0, ptr noundef nonnull %1) unnamed_addr #0 {
  %3 = alloca [1024 x i8], align 16
  %4 = alloca i32, align 4
  %5 = alloca i32, align 4
  %6 = alloca [16 x i8], align 16
  %7 = alloca [8 x i8], align 8
  %8 = alloca [5 x i8], align 1
  call void @llvm.lifetime.start.p0(i64 1024, ptr nonnull %3) #6
  call void @llvm.lifetime.start.p0(i64 4, ptr nonnull %4) #6
  call void @llvm.lifetime.start.p0(i64 4, ptr nonnull %5) #6
  call void @llvm.lifetime.start.p0(i64 16, ptr nonnull %6) #6
  call void @llvm.memcpy.p0.p0.i64(ptr noundef nonnull align 16 dereferenceable(16) %6, ptr noundef nonnull align 16 dereferenceable(16) @__const.do_evp_cipher.key, i64 16, i1 false)
  call void @llvm.lifetime.start.p0(i64 8, ptr nonnull %7) #6
  store i64 578437695752307201, ptr %7, align 8
  call void @llvm.lifetime.start.p0(i64 5, ptr nonnull %8) #6
  call void @llvm.memcpy.p0.p0.i64(ptr noundef nonnull align 1 dereferenceable(5) %8, ptr noundef nonnull align 1 dereferenceable(5) @__const.do_evp_cipher.intext, i64 5, i1 false)
  %9 = tail call ptr @EVP_CIPHER_CTX_new() #6
  %10 = tail call i32 @EVP_CIPHER_CTX_set_params(ptr noundef %9, ptr noundef nonnull %1) #6
  %.not = icmp eq i32 %10, 0
  br i1 %.not, label %11, label %12

11:                                               ; preds = %2
  tail call void @EVP_CIPHER_CTX_free(ptr noundef %9) #6
  br label %28

12:                                               ; preds = %2
  %13 = call i32 @EVP_EncryptInit_ex2(ptr noundef %9, ptr noundef nonnull %0, ptr noundef nonnull %6, ptr noundef nonnull %7, ptr noundef null) #6
  %.not11 = icmp eq i32 %13, 0
  br i1 %.not11, label %14, label %15

14:                                               ; preds = %12
  call void @EVP_CIPHER_CTX_free(ptr noundef %9) #6
  br label %28

15:                                               ; preds = %12
  %16 = call i32 @EVP_EncryptUpdate(ptr noundef %9, ptr noundef nonnull %3, ptr noundef nonnull %4, ptr noundef nonnull %8, i32 noundef 4) #6
  %.not12 = icmp eq i32 %16, 0
  br i1 %.not12, label %17, label %18

17:                                               ; preds = %15
  call void @EVP_CIPHER_CTX_free(ptr noundef %9) #6
  br label %28

18:                                               ; preds = %15
  %19 = load i32, ptr %4, align 4, !tbaa !39
  %20 = sext i32 %19 to i64
  %21 = getelementptr inbounds i8, ptr %3, i64 %20
  %22 = call i32 @EVP_EncryptFinal_ex(ptr noundef %9, ptr noundef nonnull %21, ptr noundef nonnull %5) #6
  %.not13 = icmp eq i32 %22, 0
  br i1 %.not13, label %23, label %24

23:                                               ; preds = %18
  call void @EVP_CIPHER_CTX_free(ptr noundef %9) #6
  br label %28

24:                                               ; preds = %18
  %25 = load i32, ptr %5, align 4, !tbaa !39
  %26 = load i32, ptr %4, align 4, !tbaa !39
  %27 = add nsw i32 %26, %25
  store i32 %27, ptr %4, align 4, !tbaa !39
  call void @EVP_CIPHER_CTX_free(ptr noundef %9) #6
  br label %28

28:                                               ; preds = %24, %23, %17, %14, %11
  call void @llvm.lifetime.end.p0(i64 5, ptr nonnull %8) #6
  call void @llvm.lifetime.end.p0(i64 8, ptr nonnull %7) #6
  call void @llvm.lifetime.end.p0(i64 16, ptr nonnull %6) #6
  call void @llvm.lifetime.end.p0(i64 4, ptr nonnull %5) #6
  call void @llvm.lifetime.end.p0(i64 4, ptr nonnull %4) #6
  call void @llvm.lifetime.end.p0(i64 1024, ptr nonnull %3) #6
  ret void
}